target datalayout = "e-m:e-p270:32:32-p271:32:32-p272:64:64-i64:64-i128:128-f80:128-n8:16:32:64-S128"
target triple = "x86_64-unknown-linux-gnu"

%"class.std::__cxx11::basic_string" = type { %"struct.std::__cxx11::basic_string<char>::_Alloc_hider", i64, %union.anon }
%"struct.std::__cxx11::basic_string<char>::_Alloc_hider" = type { ptr }
%union.anon = type { i64, [8 x i8] }
%"class.rocksdb::Slice" = type { ptr, i64 }
%"class.rocksdb::BlockHandle" = type { i64, i64 }
%"class.rocksdb::InternalKeyComparator" = type { %"class.rocksdb::CompareInterface", %"class.rocksdb::UserComparatorWrapper" }
%"class.rocksdb::CompareInterface" = type { ptr }
%"class.rocksdb::UserComparatorWrapper" = type { ptr }
%"class.rocksdb::Status" = type { i8, i8, i8, i8, i8, i8, %"class.std::unique_ptr" }
%"class.std::unique_ptr" = type { %"struct.std::__uniq_ptr_data" }
%"struct.std::__uniq_ptr_data" = type { %"class.std::__uniq_ptr_impl" }
%"class.std::__uniq_ptr_impl" = type { %"class.std::tuple" }
%"class.std::tuple" = type { %"struct.std::_Tuple_impl" }
%"struct.std::_Tuple_impl" = type { %"struct.std::_Head_base.13" }
%"struct.std::_Head_base.13" = type { ptr }
%"struct.rocksdb::BlockBasedTable::Rep" = type { ptr, ptr, %"struct.rocksdb::BlockBasedTableOptions", ptr, ptr, %"class.rocksdb::Status", %"class.std::unique_ptr.14", %"class.rocksdb::OffsetableCacheKey", %"struct.rocksdb::PersistentCacheOptions", %"class.rocksdb::Footer", %"class.std::unique_ptr.22", %"class.std::unique_ptr.30", %"class.std::unique_ptr.38", i32, %"class.rocksdb::BlockHandle", %"class.rocksdb::BlockHandle", %"class.std::shared_ptr.46", %"class.rocksdb::BlockHandle", i8, i8, i8, %"class.std::shared_ptr.49", %"class.std::shared_ptr.52", %"struct.rocksdb::BlockCreateContext", i64, i64, i32, %"class.rocksdb::Slice", %"class.rocksdb::Slice", i8, i8, i8, i8, i8, i8, i8, %"class.std::unique_ptr.55" }
%"struct.rocksdb::BlockBasedTableOptions" = type { %"class.std::shared_ptr", i8, i8, i8, i8, %"struct.rocksdb::MetadataCacheOptions", i8, i8, double, i8, i8, %"class.std::shared_ptr.0", %"class.std::shared_ptr.3", i64, i32, i32, i32, i64, %"struct.rocksdb::CacheUsageOptions", i8, i8, i8, %"class.std::shared_ptr.9", i8, i8, i8, i32, i32, i8, i8, i8, i64, i8, i64, i64 }
%"class.std::shared_ptr" = type { %"class.std::__shared_ptr" }
%"class.std::__shared_ptr" = type { ptr, %"class.std::__shared_count" }
%"class.std::__shared_count" = type { ptr }
%"struct.rocksdb::MetadataCacheOptions" = type { i32, i32, i32 }
%"class.std::shared_ptr.0" = type { %"class.std::__shared_ptr.1" }
%"class.std::__shared_ptr.1" = type { ptr, %"class.std::__shared_count" }
%"class.std::shared_ptr.3" = type { %"class.std::__shared_ptr.4" }
%"class.std::__shared_ptr.4" = type { ptr, %"class.std::__shared_count" }
%"struct.rocksdb::CacheUsageOptions" = type { %"struct.rocksdb::CacheEntryRoleOptions", %"class.std::map" }
%"struct.rocksdb::CacheEntryRoleOptions" = type { i32 }
%"class.std::map" = type { %"class.std::_Rb_tree" }
%"class.std::_Rb_tree" = type { %"struct.std::_Rb_tree<rocksdb::CacheEntryRole, std::pair<const rocksdb::CacheEntryRole, rocksdb::CacheEntryRoleOptions>, std::_Select1st<std::pair<const rocksdb::CacheEntryRole, rocksdb::CacheEntryRoleOptions>>, std::less<rocksdb::CacheEntryRole>>::_Rb_tree_impl" }
%"struct.std::_Rb_tree<rocksdb::CacheEntryRole, std::pair<const rocksdb::CacheEntryRole, rocksdb::CacheEntryRoleOptions>, std::_Select1st<std::pair<const rocksdb::CacheEntryRole, rocksdb::CacheEntryRoleOptions>>, std::less<rocksdb::CacheEntryRole>>::_Rb_tree_impl" = type { %"struct.std::_Rb_tree_key_compare", %"struct.std::_Rb_tree_header" }
%"struct.std::_Rb_tree_key_compare" = type { %"struct.std::less" }
%"struct.std::less" = type { i8 }
%"struct.std::_Rb_tree_header" = type { %"struct.std::_Rb_tree_node_base", i64 }
%"struct.std::_Rb_tree_node_base" = type { i32, ptr, ptr, ptr }
%"class.std::shared_ptr.9" = type { %"class.std::__shared_ptr.10" }
%"class.std::__shared_ptr.10" = type { ptr, %"class.std::__shared_count" }
%"class.std::unique_ptr.14" = type { %"struct.std::__uniq_ptr_data.15" }
%"struct.std::__uniq_ptr_data.15" = type { %"class.std::__uniq_ptr_impl.16" }
%"class.std::__uniq_ptr_impl.16" = type { %"class.std::tuple.17" }
%"class.std::tuple.17" = type { %"struct.std::_Tuple_impl.18" }
%"struct.std::_Tuple_impl.18" = type { %"struct.std::_Head_base.21" }
%"struct.std::_Head_base.21" = type { ptr }
%"class.rocksdb::OffsetableCacheKey" = type { %"class.rocksdb::CacheKey" }
%"class.rocksdb::CacheKey" = type { i64, i64 }
%"struct.rocksdb::PersistentCacheOptions" = type { %"class.std::shared_ptr.3", %"class.rocksdb::OffsetableCacheKey", ptr }
%"class.rocksdb::Footer" = type <{ i64, i32, i32, %"class.rocksdb::BlockHandle", %"class.rocksdb::BlockHandle", i32, i8, [3 x i8] }>
%"class.std::unique_ptr.22" = type { %"struct.std::__uniq_ptr_data.23" }
%"struct.std::__uniq_ptr_data.23" = type { %"class.std::__uniq_ptr_impl.24" }
%"class.std::__uniq_ptr_impl.24" = type { %"class.std::tuple.25" }
%"class.std::tuple.25" = type { %"struct.std::_Tuple_impl.26" }
%"struct.std::_Tuple_impl.26" = type { %"struct.std::_Head_base.29" }
%"struct.std::_Head_base.29" = type { ptr }
%"class.std::unique_ptr.30" = type { %"struct.std::__uniq_ptr_data.31" }
%"struct.std::__uniq_ptr_data.31" = type { %"class.std::__uniq_ptr_impl.32" }
%"class.std::__uniq_ptr_impl.32" = type { %"class.std::tuple.33" }
%"class.std::tuple.33" = type { %"struct.std::_Tuple_impl.34" }
%"struct.std::_Tuple_impl.34" = type { %"struct.std::_Head_base.37" }
%"struct.std::_Head_base.37" = type { ptr }
%"class.std::unique_ptr.38" = type { %"struct.std::__uniq_ptr_data.39" }
%"struct.std::__uniq_ptr_data.39" = type { %"class.std::__uniq_ptr_impl.40" }
%"class.std::__uniq_ptr_impl.40" = type { %"class.std::tuple.41" }
%"class.std::tuple.41" = type { %"struct.std::_Tuple_impl.42" }
%"struct.std::_Tuple_impl.42" = type { %"struct.std::_Head_base.45" }
%"struct.std::_Head_base.45" = type { ptr }
%"class.std::shared_ptr.46" = type { %"class.std::__shared_ptr.47" }
%"class.std::__shared_ptr.47" = type { ptr, %"class.std::__shared_count" }
%"class.std::shared_ptr.49" = type { %"class.std::__shared_ptr.50" }
%"class.std::__shared_ptr.50" = type { ptr, %"class.std::__shared_count" }
%"class.std::shared_ptr.52" = type { %"class.std::__shared_ptr.53" }
%"class.std::__shared_ptr.53" = type { ptr, %"class.std::__shared_count" }
%"struct.rocksdb::BlockCreateContext" = type { ptr, ptr, ptr, ptr, ptr, i32, i8, i8, i8, i8 }
%"class.std::unique_ptr.55" = type { %"struct.std::__uniq_ptr_data.56" }
%"struct.std::__uniq_ptr_data.56" = type { %"class.std::__uniq_ptr_impl.57" }
%"class.std::__uniq_ptr_impl.57" = type { %"class.std::tuple.58" }
%"class.std::tuple.58" = type { %"struct.std::_Tuple_impl.59" }
%"struct.std::_Tuple_impl.59" = type { %"struct.std::_Head_base.62" }
%"struct.std::_Head_base.62" = type { ptr }
%"struct.rocksdb::ImmutableDBOptions" = type <{ i8, i8, i8, i8, i8, i8, i8, i8, ptr, %"class.std::shared_ptr.63", %"class.std::shared_ptr.66", %"class.std::shared_ptr.69", i8, [3 x i8], i32, %"class.std::shared_ptr.72", i8, [7 x i8], %"class.std::vector.75", %"class.std::__cxx11::basic_string", %"class.std::__cxx11::basic_string", i64, i64, i64, i64, i64, i32, [4 x i8], i64, i64, i64, i64, i8, i8, i8, i8, i8, i8, i8, i8, i64, %"class.std::shared_ptr.83", i32, [4 x i8], i64, i8, [7 x i8], %"class.std::vector.86", i8, i8, i8, i8, i8, [3 x i8], i64, i64, i8, i8, i8, i8, [4 x i8], %"class.std::shared_ptr.0", ptr, i8, i8, i8, i8, i8, i8, i8, i8, i8, i8, i8, [5 x i8], i64, %"class.std::shared_ptr.91", i8, [3 x i8], i32, i64, i8, [7 x i8], %"class.std::__cxx11::basic_string", %"class.rocksdb::SmallEnumSet", i8, [7 x i8], %"class.std::shared_ptr.94", ptr, ptr, ptr, %"class.std::shared_ptr.97", i8, [7 x i8] }>
%"class.std::shared_ptr.63" = type { %"class.std::__shared_ptr.64" }
%"class.std::__shared_ptr.64" = type { ptr, %"class.std::__shared_count" }
%"class.std::shared_ptr.66" = type { %"class.std::__shared_ptr.67" }
%"class.std::__shared_ptr.67" = type { ptr, %"class.std::__shared_count" }
%"class.std::shared_ptr.69" = type { %"class.std::__shared_ptr.70" }
%"class.std::__shared_ptr.70" = type { ptr, %"class.std::__shared_count" }
%"class.std::shared_ptr.72" = type { %"class.std::__shared_ptr.73" }
%"class.std::__shared_ptr.73" = type { ptr, %"class.std::__shared_count" }
%"class.std::vector.75" = type { %"struct.std::_Vector_base.76" }
%"struct.std::_Vector_base.76" = type { %"struct.std::_Vector_base<rocksdb::DbPath, std::allocator<rocksdb::DbPath>>::_Vector_impl" }
%"struct.std::_Vector_base<rocksdb::DbPath, std::allocator<rocksdb::DbPath>>::_Vector_impl" = type { %"struct.std::_Vector_base<rocksdb::DbPath, std::allocator<rocksdb::DbPath>>::_Vector_impl_data" }
%"struct.std::_Vector_base<rocksdb::DbPath, std::allocator<rocksdb::DbPath>>::_Vector_impl_data" = type { ptr, ptr, ptr }
%"class.std::shared_ptr.83" = type { %"class.std::__shared_ptr.84" }
%"class.std::__shared_ptr.84" = type { ptr, %"class.std::__shared_count" }
%"class.std::vector.86" = type { %"struct.std::_Vector_base.87" }
%"struct.std::_Vector_base.87" = type { %"struct.std::_Vector_base<std::shared_ptr<rocksdb::EventListener>, std::allocator<std::shared_ptr<rocksdb::EventListener>>>::_Vector_impl" }
%"struct.std::_Vector_base<std::shared_ptr<rocksdb::EventListener>, std::allocator<std::shared_ptr<rocksdb::EventListener>>>::_Vector_impl" = type { %"struct.std::_Vector_base<std::shared_ptr<rocksdb::EventListener>, std::allocator<std::shared_ptr<rocksdb::EventListener>>>::_Vector_impl_data" }
%"struct.std::_Vector_base<std::shared_ptr<rocksdb::EventListener>, std::allocator<std::shared_ptr<rocksdb::EventListener>>>::_Vector_impl_data" = type { ptr, ptr, ptr }
%"class.std::shared_ptr.91" = type { %"class.std::__shared_ptr.92" }
%"class.std::__shared_ptr.92" = type { ptr, %"class.std::__shared_count" }
%"class.rocksdb::SmallEnumSet" = type { i64 }
%"class.std::shared_ptr.94" = type { %"class.std::__shared_ptr.95" }
%"class.std::__shared_ptr.95" = type { ptr, %"class.std::__shared_count" }
%"class.std::shared_ptr.97" = type { %"class.std::__shared_ptr.98" }
%"class.std::__shared_ptr.98" = type { ptr, %"class.std::__shared_count" }

; Function Attrs: mustprogress nounwind uwtable
define linkonce_odr noundef ptr @_ZNK7rocksdb21UserComparatorWrapper15user_comparatorEv(ptr noundef nonnull align 8 dereferenceable(8) %this) #1 comdat align 2 {
entry:
  %this.addr = alloca ptr, align 8
  store ptr %this, ptr %this.addr, align 8
  %this1 = load ptr, ptr %this.addr, align 8
  %user_comparator_ = getelementptr inbounds %"class.rocksdb::UserComparatorWrapper", ptr %this1, i32 0, i32 0
  %0 = load ptr, ptr %user_comparator_, align 8
  ret ptr %0
}

; Function Attrs: mustprogress nounwind uwtable
define linkonce_odr noundef i64 @_ZNK7rocksdb15BlockBasedTable3Rep16get_global_seqnoENS_9BlockTypeE(ptr noundef nonnull align 8 dereferenceable(672) %this, i8 noundef zeroext %block_type) #1 comdat align 2 {
entry:
  %this.addr = alloca ptr, align 8
  %block_type.addr = alloca i8, align 1
  store ptr %this, ptr %this.addr, align 8
  store i8 %block_type, ptr %block_type.addr, align 1
  %this1 = load ptr, ptr %this.addr, align 8
  %0 = load i8, ptr %block_type.addr, align 1
  %cmp = icmp eq i8 %0, 2
  br i1 %cmp, label %cond.true, label %lor.lhs.false

lor.lhs.false:                                    ; preds = %entry
  %1 = load i8, ptr %block_type.addr, align 1
  %cmp2 = icmp eq i8 %1, 4
  br i1 %cmp2, label %cond.true, label %cond.false

cond.true:                                        ; preds = %lor.lhs.false, %entry
  br label %cond.end

cond.false:                                       ; preds = %lor.lhs.false
  %global_seqno = getelementptr inbounds %"struct.rocksdb::BlockBasedTable::Rep", ptr %this1, i32 0, i32 24
  %2 = load i64, ptr %global_seqno, align 8
  br label %cond.end

cond.end:                                         ; preds = %cond.false, %cond.true
  %cond = phi i64 [ -1, %cond.true ], [ %2, %cond.false ]
  ret i64 %cond
}

; Function Attrs: mustprogress uwtable
define linkonce_odr noundef ptr @_ZNK7rocksdb21InternalKeyComparator15user_comparatorEv(ptr noundef nonnull align 8 dereferenceable(16) %this) #0 comdat align 2 {
entry:
  %this.addr = alloca ptr, align 8
  store ptr %this, ptr %this.addr, align 8
  %this1 = load ptr, ptr %this.addr, align 8
  %user_comparator_ = getelementptr inbounds %"class.rocksdb::InternalKeyComparator", ptr %this1, i32 0, i32 1
  %call = call noundef ptr @_ZNK7rocksdb21UserComparatorWrapper15user_comparatorEv(ptr noundef nonnull align 8 dereferenceable(8) %user_comparator_)
  ret ptr %call
}

; Function Attrs: mustprogress uwtable
define noundef ptr @_ZN7rocksdb15BlockBasedTable17InitBlockIteratorINS_14IndexBlockIterEEEPT_PKNS0_3RepEPNS_5BlockENS_9BlockTypeES4_b(ptr noundef %rep, ptr noundef %block, i8 noundef zeroext %block_type, ptr noundef %input_iter, i1 noundef zeroext %block_contents_pinned) #0 align 2 {
entry:
  %rep.addr = alloca ptr, align 8
  %block.addr = alloca ptr, align 8
  %block_type.addr = alloca i8, align 1
  %input_iter.addr = alloca ptr, align 8
  %block_contents_pinned.addr = alloca i8, align 1
  store ptr %rep, ptr %rep.addr, align 8
  store ptr %block, ptr %block.addr, align 8
  store i8 %block_type, ptr %block_type.addr, align 1
  store ptr %input_iter, ptr %input_iter.addr, align 8
  %frombool = zext i1 %block_contents_pinned to i8
  store i8 %frombool, ptr %block_contents_pinned.addr, align 1
  %0 = load ptr, ptr %block.addr, align 8
  %1 = load ptr, ptr %rep.addr, align 8
  %internal_comparator = getelementptr inbounds %"struct.rocksdb::BlockBasedTable::Rep", ptr %1, i32 0, i32 4
  %2 = load ptr, ptr %internal_comparator, align 8
  %call = call noundef ptr @_ZNK7rocksdb21InternalKeyComparator15user_comparatorEv(ptr noundef nonnull align 8 dereferenceable(16) %2)
  %3 = load ptr, ptr %rep.addr, align 8
  %4 = load i8, ptr %block_type.addr, align 1
  %call1 = call noundef i64 @_ZNK7rocksdb15BlockBasedTable3Rep16get_global_seqnoENS_9BlockTypeE(ptr noundef nonnull align 8 dereferenceable(672) %3, i8 noundef zeroext %4)
  %5 = load ptr, ptr %input_iter.addr, align 8
  %6 = load ptr, ptr %rep.addr, align 8
  %ioptions = getelementptr inbounds %"struct.rocksdb::BlockBasedTable::Rep", ptr %6, i32 0, i32 0
  %7 = load ptr, ptr %ioptions, align 8
  %stats = getelementptr inbounds %"struct.rocksdb::ImmutableDBOptions", ptr %7, i32 0, i32 89
  %8 = load ptr, ptr %stats, align 8
  %9 = load ptr, ptr %rep.addr, align 8
  %index_has_first_key = getelementptr inbounds %"struct.rocksdb::BlockBasedTable::Rep", ptr %9, i32 0, i32 30
  %10 = load i8, ptr %index_has_first_key, align 1
  %tobool = trunc i8 %10 to i1
  %11 = load ptr, ptr %rep.addr, align 8
  %index_key_includes_seq = getelementptr inbounds %"struct.rocksdb::BlockBasedTable::Rep", ptr %11, i32 0, i32 31
  %12 = load i8, ptr %index_key_includes_seq, align 2
  %tobool2 = trunc i8 %12 to i1
  %13 = load ptr, ptr %rep.addr, align 8
  %index_value_is_full = getelementptr inbounds %"struct.rocksdb::BlockBasedTable::Rep", ptr %13, i32 0, i32 32
  %14 = load i8, ptr %index_value_is_full, align 1
  %tobool3 = trunc i8 %14 to i1
  %15 = load i8, ptr %block_contents_pinned.addr, align 1
  %tobool4 = trunc i8 %15 to i1
  %16 = load ptr, ptr %rep.addr, align 8
  %user_defined_timestamps_persisted = getelementptr inbounds %"struct.rocksdb::BlockBasedTable::Rep", ptr %16, i32 0, i32 35
  %17 = load i8, ptr %user_defined_timestamps_persisted, align 2
  %tobool5 = trunc i8 %17 to i1
  %call6 = call noundef ptr @_ZN7rocksdb5Block16NewIndexIteratorEPKNS_10ComparatorEmPNS_14IndexBlockIterEPNS_10StatisticsEbbbbbbPNS_16BlockPrefixIndexE(ptr noundef nonnull align 8 dereferenceable(84) %0, ptr noundef %call, i64 noundef %call1, ptr noundef %5, ptr noundef %8, i1 noundef zeroext true, i1 noundef zeroext %tobool, i1 noundef zeroext %tobool2, i1 noundef zeroext %tobool3, i1 noundef zeroext %tobool4, i1 noundef zeroext %tobool5, ptr noundef null)
  ret ptr %call6
}